target datalayout = "e-m:e-p270:32:32-p271:32:32-p272:64:64-i64:64-i128:128-f80:128-n8:16:32:64-S128"
target triple = "x86_64-pc-linux-gnu"

%class.G1ConcurrentRefineThread = type { %class.ConcurrentGCThread.base, double, double, %class.Monitor, i8, %class.G1ConcurrentRefineStats, i32, ptr }
%class.ConcurrentGCThread.base = type { %class.NamedThread.base, i8, i8 }
%class.NamedThread.base = type <{ %class.NonJavaThread, ptr, ptr, i32 }>
%class.NonJavaThread = type { %class.Thread, ptr }
%class.Thread = type { %class.ThreadShadow.base, i64, [43 x i64], ptr, ptr, i32, ptr, i64, i64, %class.ThreadLocalAllocBuffer, i64, %class.ThreadHeapSampler, %class.ThreadStatisticalInfo, %class.JfrThreadLocal, ptr, ptr, ptr, ptr, ptr, ptr, i64, i32, i32, ptr, i32, i32, i32, i32, i8, ptr }
%class.ThreadShadow.base = type <{ ptr, ptr, ptr, i32 }>
%class.ThreadLocalAllocBuffer = type <{ ptr, ptr, ptr, ptr, ptr, i64, i64, i64, i64, i32, i32, i32, i32, i64, %class.AdaptiveWeightedAverage, [4 x i8] }>
%class.AdaptiveWeightedAverage = type { float, i32, i32, i8, float }
%class.ThreadHeapSampler = type { i64 }
%class.ThreadStatisticalInfo = type { i64, i64 }
%class.JfrThreadLocal = type <{ ptr, ptr, ptr, ptr, ptr, ptr, ptr, ptr, ptr, ptr, %class.RefCountHandle, i64, i64, i64, i64, i64, i64, i64, i64, i64, i64, i64, i32, i32, i32, i16, i8, i8, i8, i8, i8, [5 x i8] }>
%class.RefCountHandle = type { ptr }
%class.Monitor = type { %class.Mutex }
%class.Mutex = type { ptr, %class.PlatformMonitor, ptr }
%class.PlatformMonitor = type { %class.PlatformMutex, %union.pthread_cond_t }
%class.PlatformMutex = type { %union.pthread_mutex_t }
%union.pthread_mutex_t = type { %struct.__pthread_mutex_s }
%struct.__pthread_mutex_s = type { i32, i32, i32, i32, i32, i16, i16, %struct.__pthread_internal_list }
%struct.__pthread_internal_list = type { ptr, ptr }
%union.pthread_cond_t = type { %struct.__pthread_cond_s }
%struct.__pthread_cond_s = type { %union.__atomic_wide_counter, %union.__atomic_wide_counter, [2 x i32], [2 x i32], i32, i32, [2 x i32] }
%union.__atomic_wide_counter = type { i64 }
%class.G1ConcurrentRefineStats = type { %class.TimeInterval, i64, i64, i64 }
%class.TimeInterval = type { %class.CompositeCounterRepresentation }
%class.CompositeCounterRepresentation = type { %class.Representation }
%class.Representation = type { %class.PairRep }
%class.PairRep = type { i64, i64 }
%class.MonitorLocker = type <{ %class.MutexLockerImpl, i32, [4 x i8] }>
%class.MutexLockerImpl = type { ptr }

; Function Attrs: mustprogress nounwind uwtable
define linkonce_odr hidden void @_ZN15MutexLockerImplD2Ev(ptr noundef nonnull align 8 dereferenceable(8) %0) unnamed_addr #1 comdat align 2 {
  %2 = alloca ptr, align 8
  store ptr %0, ptr %2, align 8
  %3 = load ptr, ptr %2, align 8
  %4 = getelementptr inbounds %class.MutexLockerImpl, ptr %3, i32 0, i32 0
  %5 = load ptr, ptr %4, align 8
  %6 = icmp ne ptr %5, null
  br i1 %6, label %7, label %10

7:                                                ; preds = %1
  %8 = getelementptr inbounds %class.MutexLockerImpl, ptr %3, i32 0, i32 0
  %9 = load ptr, ptr %8, align 8
  call void @_ZN5Mutex6unlockEv(ptr noundef nonnull align 8 dereferenceable(104) %9)
  br label %10

10:                                               ; preds = %7, %1
  ret void
}

; Function Attrs: mustprogress nounwind uwtable
define linkonce_odr hidden noundef ptr @_ZNK13MonitorLocker10as_monitorEv(ptr noundef nonnull align 8 dereferenceable(12) %0) #1 comdat align 2 {
  %2 = alloca ptr, align 8
  store ptr %0, ptr %2, align 8
  %3 = load ptr, ptr %2, align 8
  %4 = getelementptr inbounds %class.MutexLockerImpl, ptr %3, i32 0, i32 0
  %5 = load ptr, ptr %4, align 8
  ret ptr %5
}

; Function Attrs: mustprogress nounwind uwtable
define linkonce_odr hidden void @_ZN15MutexLockerImplC2EP5MutexNS0_18SafepointCheckFlagE(ptr noundef nonnull align 8 dereferenceable(8) %0, ptr noundef %1, i32 noundef %2) unnamed_addr #1 comdat align 2 {
  %4 = alloca ptr, align 8
  %5 = alloca ptr, align 8
  %6 = alloca i32, align 4
  %7 = alloca i8, align 1
  store ptr %0, ptr %4, align 8
  store ptr %1, ptr %5, align 8
  store i32 %2, ptr %6, align 4
  %8 = load ptr, ptr %4, align 8
  %9 = getelementptr inbounds %class.MutexLockerImpl, ptr %8, i32 0, i32 0
  %10 = load ptr, ptr %5, align 8
  store ptr %10, ptr %9, align 8
  %11 = load i32, ptr %6, align 4
  %12 = icmp eq i32 %11, 1
  %13 = zext i1 %12 to i8
  store i8 %13, ptr %7, align 1
  %14 = getelementptr inbounds %class.MutexLockerImpl, ptr %8, i32 0, i32 0
  %15 = load ptr, ptr %14, align 8
  %16 = icmp ne ptr %15, null
  br i1 %16, label %17, label %27

17:                                               ; preds = %3
  %18 = load i8, ptr %7, align 1
  %19 = trunc i8 %18 to i1
  br i1 %19, label %20, label %23

20:                                               ; preds = %17
  %21 = getelementptr inbounds %class.MutexLockerImpl, ptr %8, i32 0, i32 0
  %22 = load ptr, ptr %21, align 8
  call void @_ZN5Mutex28lock_without_safepoint_checkEv(ptr noundef nonnull align 8 dereferenceable(104) %22)
  br label %26

23:                                               ; preds = %17
  %24 = getelementptr inbounds %class.MutexLockerImpl, ptr %8, i32 0, i32 0
  %25 = load ptr, ptr %24, align 8
  call void @_ZN5Mutex4lockEv(ptr noundef nonnull align 8 dereferenceable(104) %25)
  br label %26

26:                                               ; preds = %23, %20
  br label %27

27:                                               ; preds = %26, %3
  ret void
}

; Function Attrs: mustprogress nounwind uwtable
define linkonce_odr hidden void @_ZN13MonitorLockerD2Ev(ptr noundef nonnull align 8 dereferenceable(12) %0) unnamed_addr #1 comdat align 2 {
  %2 = alloca ptr, align 8
  store ptr %0, ptr %2, align 8
  %3 = load ptr, ptr %2, align 8
  call void @_ZN15MutexLockerImplD2Ev(ptr noundef nonnull align 8 dereferenceable(8) %3) #7
  ret void
}

; Function Attrs: mustprogress nounwind uwtable
define linkonce_odr hidden void @_ZN13MonitorLocker6notifyEv(ptr noundef nonnull align 8 dereferenceable(12) %0) #1 comdat align 2 {
  %2 = alloca ptr, align 8
  store ptr %0, ptr %2, align 8
  %3 = load ptr, ptr %2, align 8
  %4 = call noundef ptr @_ZNK13MonitorLocker10as_monitorEv(ptr noundef nonnull align 8 dereferenceable(12) %3)
  call void @_ZN7Monitor6notifyEv(ptr noundef nonnull align 8 dereferenceable(104) %4)
  ret void
}

; Function Attrs: mustprogress nounwind uwtable
define linkonce_odr hidden void @_ZN13MonitorLockerC2EP7MonitorN5Mutex18SafepointCheckFlagE(ptr noundef nonnull align 8 dereferenceable(12) %0, ptr noundef %1, i32 noundef %2) unnamed_addr #1 comdat align 2 {
  %4 = alloca ptr, align 8
  %5 = alloca ptr, align 8
  %6 = alloca i32, align 4
  store ptr %0, ptr %4, align 8
  store ptr %1, ptr %5, align 8
  store i32 %2, ptr %6, align 4
  %7 = load ptr, ptr %4, align 8
  %8 = load ptr, ptr %5, align 8
  %9 = load i32, ptr %6, align 4
  call void @_ZN15MutexLockerImplC2EP5MutexNS0_18SafepointCheckFlagE(ptr noundef nonnull align 8 dereferenceable(8) %7, ptr noundef %8, i32 noundef %9)
  %10 = getelementptr inbounds %class.MonitorLocker, ptr %7, i32 0, i32 1
  %11 = load i32, ptr %6, align 4
  store i32 %11, ptr %10, align 8
  ret void
}

; Function Attrs: mustprogress nounwind uwtable
define hidden void @_ZN24G1ConcurrentRefineThread8activateEv(ptr noundef nonnull align 8 dereferenceable(1104) %0) #1 align 2 {
  %2 = alloca ptr, align 8
  %3 = alloca %class.MonitorLocker, align 8
  store ptr %0, ptr %2, align 8
  %4 = load ptr, ptr %2, align 8
  %5 = getelementptr inbounds %class.G1ConcurrentRefineThread, ptr %4, i32 0, i32 3
  call void @_ZN13MonitorLockerC2EP7MonitorN5Mutex18SafepointCheckFlagE(ptr noundef nonnull align 8 dereferenceable(12) %3, ptr noundef %5, i32 noundef 1)
  %6 = getelementptr inbounds %class.G1ConcurrentRefineThread, ptr %4, i32 0, i32 4
  %7 = load i8, ptr %6, align 8
  %8 = trunc i8 %7 to i1
  br i1 %8, label %9, label %11

9:                                                ; preds = %1
  %10 = call noundef zeroext i1 @_ZNK18ConcurrentGCThread16should_terminateEv(ptr noundef nonnull align 8 dereferenceable(918) %4)
  br i1 %10, label %11, label %13

11:                                               ; preds = %9, %1
  %12 = getelementptr inbounds %class.G1ConcurrentRefineThread, ptr %4, i32 0, i32 4
  store i8 1, ptr %12, align 8
  call void @_ZN13MonitorLocker6notifyEv(ptr noundef nonnull align 8 dereferenceable(12) %3)
  br label %13

13:                                               ; preds = %11, %9
  call void @_ZN13MonitorLockerD2Ev(ptr noundef nonnull align 8 dereferenceable(12) %3) #7
  ret void
}