; Function Attrs: mustprogress nounwind uwtable
define hidden void @_ZN24G1ConcurrentRefineThread8activateEv(ptr noundef nonnull align 8 dereferenceable(1104) %0) local_unnamed_addr #0 align 2 {
  %2 = getelementptr inbounds i8, ptr %0, i64 936
  tail call void @_ZN5Mutex28lock_without_safepoint_checkEv(ptr noundef nonnull align 8 dereferenceable(104) %2) #9
  %3 = getelementptr inbounds i8, ptr %0, i64 1040
  %4 = load i8, ptr %3, align 8
  %5 = trunc i8 %4 to i1
  br i1 %5, label %6, label %8

6:                                                ; preds = %1
  %7 = tail call noundef zeroext i1 @_ZNK18ConcurrentGCThread16should_terminateEv(ptr noundef nonnull align 8 dereferenceable(918) %0) #9
  br i1 %7, label %8, label %_ZN13MonitorLockerD2Ev.exit

8:                                                ; preds = %6, %1
  store i8 1, ptr %3, align 8
  tail call void @_ZN7Monitor6notifyEv(ptr noundef nonnull align 8 dereferenceable(104) %2) #9
  br label %_ZN13MonitorLockerD2Ev.exit

_ZN13MonitorLockerD2Ev.exit:                      ; preds = %8, %6
  tail call void @_ZN5Mutex6unlockEv(ptr noundef nonnull align 8 dereferenceable(104) %2) #9
  ret void
}